target datalayout = "e-m:e-p270:32:32-p271:32:32-p272:64:64-i64:64-i128:128-f80:128-n8:16:32:64-S128"
target triple = "x86_64-pc-linux-gnu"

; Function Attrs: null_pointer_is_valid sspstrong uwtable
define i32 @dissect_ber_integer(i1 noundef zeroext %0, ptr noundef %1, ptr noundef %2, ptr noundef %3, i32 noundef %4, i32 noundef %5, ptr noundef %6) #0 {
  %8 = alloca i8, align 1
  %9 = alloca ptr, align 8
  %10 = alloca ptr, align 8
  %11 = alloca ptr, align 8
  %12 = alloca i32, align 4
  %13 = alloca i32, align 4
  %14 = alloca ptr, align 8
  %15 = alloca i64, align 8
  %16 = zext i1 %0 to i8
  store i8 %16, ptr %8, align 1
  store ptr %1, ptr %9, align 8
  store ptr %2, ptr %10, align 8
  store ptr %3, ptr %11, align 8
  store i32 %4, ptr %12, align 4
  store i32 %5, ptr %13, align 4
  store ptr %6, ptr %14, align 8
  call void @llvm.lifetime.start.p0(i64 8, ptr %15) #12
  %17 = load i8, ptr %8, align 1, !range !6, !noundef !7
  %18 = trunc i8 %17 to i1
  %19 = load ptr, ptr %9, align 8
  %20 = load ptr, ptr %10, align 8
  %21 = load ptr, ptr %11, align 8
  %22 = load i32, ptr %12, align 4
  %23 = load i32, ptr %13, align 4
  %24 = call i32 @dissect_ber_integer64(i1 noundef zeroext %18, ptr noundef %19, ptr noundef %20, ptr noundef %21, i32 noundef %22, i32 noundef %23, ptr noundef %15)
  store i32 %24, ptr %12, align 4
  %25 = load ptr, ptr %14, align 8
  %26 = icmp ne ptr %25, null
  br i1 %26, label %27, label %31

27:                                               ; preds = %7
  %28 = load i64, ptr %15, align 8
  %29 = trunc i64 %28 to i32
  %30 = load ptr, ptr %14, align 8
  store i32 %29, ptr %30, align 4
  br label %31

31:                                               ; preds = %27, %7
  %32 = load i32, ptr %12, align 4
  call void @llvm.lifetime.end.p0(i64 8, ptr %15) #12
  ret i32 %32
}