; Function Attrs: null_pointer_is_valid sspstrong uwtable
define i32 @dissect_ber_integer(i1 noundef zeroext %0, ptr noundef captures(none) %1, ptr noundef %2, ptr noundef %3, i32 noundef %4, i32 noundef %5, ptr noundef writeonly captures(address_is_null) %6) local_unnamed_addr #0 {
  %8 = alloca i64, align 8
  call void @llvm.lifetime.start.p0(i64 8, ptr nonnull %8) #14
  %9 = call i32 @dissect_ber_integer64(i1 noundef zeroext %0, ptr noundef %1, ptr noundef %2, ptr noundef %3, i32 noundef %4, i32 noundef %5, ptr noundef nonnull %8)
  %.not = icmp eq ptr %6, null
  br i1 %.not, label %13, label %10

10:                                               ; preds = %7
  %11 = load i64, ptr %8, align 8
  %12 = trunc i64 %11 to i32
  store i32 %12, ptr %6, align 4
  br label %13

13:                                               ; preds = %10, %7
  call void @llvm.lifetime.end.p0(i64 8, ptr nonnull %8) #14
  ret i32 %9
}